target datalayout = "e-m:e-p270:32:32-p271:32:32-p272:64:64-i64:64-i128:128-f80:128-n8:16:32:64-S128"
target triple = "x86_64-pc-linux-gnu"

; Function Attrs: mustprogress nounwind ssp uwtable
define noundef double @_ZN6open3d13visualization30ViewControlWithCustomAnimation20RegularizeFrameIndexEdmb(ptr noundef nonnull align 16 dereferenceable(816) %0, double noundef %1, i64 noundef %2, i1 noundef zeroext %3) #0 align 2 {
  %5 = alloca double, align 8
  %6 = alloca ptr, align 8
  %7 = alloca double, align 8
  %8 = alloca i64, align 8
  %9 = alloca i8, align 1
  %10 = alloca double, align 8
  store ptr %0, ptr %6, align 8, !tbaa !4
  store double %1, ptr %7, align 8, !tbaa !46
  store i64 %2, ptr %8, align 8, !tbaa !70
  %11 = zext i1 %3 to i8
  store i8 %11, ptr %9, align 1, !tbaa !138
  %12 = load i64, ptr %8, align 8, !tbaa !70
  %13 = icmp eq i64 %12, 0
  br i1 %13, label %14, label %15

14:                                               ; preds = %4
  store double 0.000000e+00, ptr %5, align 8
  br label %61

15:                                               ; preds = %4
  call void @llvm.lifetime.start.p0(i64 8, ptr %10) #8
  %16 = load double, ptr %7, align 8, !tbaa !46
  store double %16, ptr %10, align 8, !tbaa !46
  %17 = load i8, ptr %9, align 1, !tbaa !138, !range !155, !noundef !156
  %18 = trunc i8 %17 to i1
  br i1 %18, label %19, label %44

19:                                               ; preds = %15
  br label %20

20:                                               ; preds = %25, %19
  %21 = load double, ptr %10, align 8, !tbaa !46
  %22 = call double @llvm.round.f64(double %21)
  %23 = fptosi double %22 to i32
  %24 = icmp slt i32 %23, 0
  br i1 %24, label %25, label %30

25:                                               ; preds = %20
  %26 = load i64, ptr %8, align 8, !tbaa !70
  %27 = uitofp i64 %26 to double
  %28 = load double, ptr %10, align 8, !tbaa !46
  %29 = fadd double %28, %27
  store double %29, ptr %10, align 8, !tbaa !46
  br label %20, !llvm.loop !264

30:                                               ; preds = %20
  br label %31

31:                                               ; preds = %38, %30
  %32 = load double, ptr %10, align 8, !tbaa !46
  %33 = call double @llvm.round.f64(double %32)
  %34 = fptosi double %33 to i32
  %35 = load i64, ptr %8, align 8, !tbaa !70
  %36 = trunc i64 %35 to i32
  %37 = icmp sge i32 %34, %36
  br i1 %37, label %38, label %43

38:                                               ; preds = %31
  %39 = load i64, ptr %8, align 8, !tbaa !70
  %40 = uitofp i64 %39 to double
  %41 = load double, ptr %10, align 8, !tbaa !46
  %42 = fsub double %41, %40
  store double %42, ptr %10, align 8, !tbaa !46
  br label %31, !llvm.loop !265

43:                                               ; preds = %31
  br label %59

44:                                               ; preds = %15
  %45 = load double, ptr %10, align 8, !tbaa !46
  %46 = fcmp olt double %45, 0.000000e+00
  br i1 %46, label %47, label %48

47:                                               ; preds = %44
  store double 0.000000e+00, ptr %10, align 8, !tbaa !46
  br label %48

48:                                               ; preds = %47, %44
  %49 = load double, ptr %10, align 8, !tbaa !46
  %50 = load i64, ptr %8, align 8, !tbaa !70
  %51 = uitofp i64 %50 to double
  %52 = fsub double %51, 1.000000e+00
  %53 = fcmp ogt double %49, %52
  br i1 %53, label %54, label %58

54:                                               ; preds = %48
  %55 = load i64, ptr %8, align 8, !tbaa !70
  %56 = uitofp i64 %55 to double
  %57 = fsub double %56, 1.000000e+00
  store double %57, ptr %10, align 8, !tbaa !46
  br label %58

58:                                               ; preds = %54, %48
  br label %59

59:                                               ; preds = %58, %43
  %60 = load double, ptr %10, align 8, !tbaa !46
  store double %60, ptr %5, align 8
  call void @llvm.lifetime.end.p0(i64 8, ptr %10) #8
  br label %61

61:                                               ; preds = %59, %14
  %62 = load double, ptr %5, align 8
  ret double %62
}