; Function Attrs: mustprogress nofree norecurse nosync nounwind ssp willreturn memory(none) uwtable
define noundef double @_ZN6open3d13visualization30ViewControlWithCustomAnimation20RegularizeFrameIndexEdmb(ptr noundef nonnull readnone align 16 captures(none) dereferenceable(816) %0, double noundef %1, i64 noundef %2, i1 noundef zeroext %3) local_unnamed_addr #15 align 2 {
  %5 = icmp eq i64 %2, 0
  br i1 %5, label %.loopexit, label %6

6:                                                ; preds = %4
  br i1 %3, label %.preheader19, label %22

.preheader19:                                     ; preds = %6
  %7 = tail call double @llvm.round.f64(double %1)
  %8 = fptosi double %7 to i32
  %9 = icmp slt i32 %8, 0
  br i1 %9, label %.lr.ph, label %.preheader

.lr.ph:                                           ; preds = %.preheader19
  %10 = uitofp i64 %2 to double
  br label %13

.preheader:                                       ; preds = %13, %.preheader19
  %.pre-phi26 = phi i32 [ %8, %.preheader19 ], [ %16, %13 ]
  %.0.lcssa = phi double [ %1, %.preheader19 ], [ %14, %13 ]
  %11 = trunc i64 %2 to i32
  %.not21 = icmp slt i32 %.pre-phi26, %11
  br i1 %.not21, label %.loopexit, label %.lr.ph23

.lr.ph23:                                         ; preds = %.preheader
  %12 = uitofp i64 %2 to double
  br label %18

13:                                               ; preds = %.lr.ph, %13
  %.020 = phi double [ %1, %.lr.ph ], [ %14, %13 ]
  %14 = fadd double %.020, %10
  %15 = tail call double @llvm.round.f64(double %14)
  %16 = fptosi double %15 to i32
  %17 = icmp slt i32 %16, 0
  br i1 %17, label %13, label %.preheader, !llvm.loop !96

18:                                               ; preds = %.lr.ph23, %18
  %.122 = phi double [ %.0.lcssa, %.lr.ph23 ], [ %19, %18 ]
  %19 = fsub double %.122, %12
  %20 = tail call double @llvm.round.f64(double %19)
  %21 = fptosi double %20 to i32
  %.not = icmp slt i32 %21, %11
  br i1 %.not, label %.loopexit, label %18, !llvm.loop !97

22:                                               ; preds = %6
  %23 = fcmp olt double %1, 0.000000e+00
  %.3 = select i1 %23, double 0.000000e+00, double %1
  %24 = uitofp i64 %2 to double
  %25 = fadd double %24, -1.000000e+00
  %26 = fcmp ogt double %.3, %25
  br i1 %26, label %27, label %.loopexit

27:                                               ; preds = %22
  br label %.loopexit

.loopexit:                                        ; preds = %18, %.preheader, %27, %22, %4
  %.015 = phi double [ 0.000000e+00, %4 ], [ %25, %27 ], [ %.3, %22 ], [ %.0.lcssa, %.preheader ], [ %19, %18 ]
  ret double %.015
}